target datalayout = "e-m:e-p270:32:32-p271:32:32-p272:64:64-i64:64-i128:128-f80:128-n8:16:32:64-S128"
target triple = "x86_64-pc-linux-gnu"

%struct.aom_codec_priv = type { ptr, i64, %struct.anon }
%struct.anon = type { %struct.aom_fixed_buf, i32, i32, %struct.aom_codec_cx_pkt }
%struct.aom_fixed_buf = type { ptr, i64 }
%struct.aom_codec_cx_pkt = type { i32, %union.anon.0 }
%union.anon.0 = type { %struct.aom_psnr_pkt }
%struct.aom_psnr_pkt = type { [4 x i32], [4 x i64], [4 x double], [4 x i32], [4 x i64], [4 x double] }
%struct.aom_codec_alg_priv = type { %struct.aom_codec_priv, %struct.aom_codec_dec_cfg, %struct.aom_codec_stream_info, %struct.aom_image, i32, i32, i32, ptr, i32, i32, i32, i32, i32, i32, i32, i32, %struct.EXTERNAL_REFERENCES, i32, i32, i32, ptr, %struct.aom_image, [4 x %struct.aom_codec_frame_buffer], i64, i32, ptr, ptr, ptr, ptr }
%struct.aom_codec_dec_cfg = type { i32, i32, i32, i32 }
%struct.aom_codec_stream_info = type { i32, i32, i32, i32, i32, i32 }
%struct.EXTERNAL_REFERENCES = type { [128 x %struct.yv12_buffer_config], i32 }
%struct.yv12_buffer_config = type { %union.anon.2, %union.anon.4, %union.anon.6, %union.anon.8, %union.anon.10, %union.anon.12, i32, [3 x ptr], ptr, i32, ptr, i64, i32, i64, i32, i32, i32, i32, i32, i32, i8, i32, i32, i32, i32, i32, i32, ptr }
%union.anon.2 = type { %struct.anon.3 }
%struct.anon.3 = type { i32, i32 }
%union.anon.4 = type { %struct.anon.5 }
%struct.anon.5 = type { i32, i32 }
%union.anon.6 = type { %struct.anon.7 }
%struct.anon.7 = type { i32, i32 }
%union.anon.8 = type { %struct.anon.9 }
%struct.anon.9 = type { i32, i32 }
%union.anon.10 = type { %struct.anon.11 }
%struct.anon.11 = type { i32, i32 }
%union.anon.12 = type { %struct.anon.13 }
%struct.anon.13 = type { ptr, ptr, ptr }
%struct.aom_image = type { i32, i32, i32, i32, i32, i32, i32, i32, i32, i32, i32, i32, i32, i32, i32, i32, [3 x ptr], [3 x i32], i64, i32, i32, i32, ptr, ptr, i32, i32, ptr, ptr }
%struct.aom_codec_frame_buffer = type { ptr, i64, ptr }
%struct.AVxWorker = type { ptr, i32, ptr, ptr, ptr, ptr, i32 }
%struct.FrameWorkerData = type { ptr, ptr, ptr, i64, ptr, i32, i32, i32 }
%struct.AV1Decoder = type { %struct.DecoderCodingBlock, %struct.AV1Common, %struct.AVxWorker, %struct.AV1LfSyncData, %struct.AV1LrSyncData, %struct.AV1LrStruct, ptr, i32, ptr, [16 x i8], %struct.ThreadData, ptr, i32, [64 x [64 x %struct.TileBufferDec]], %struct.AV1DecTileMTData, i32, [4 x ptr], i64, i32, i32, i32, i32, i32, i32, i32, i32, i32, i32, i32, i32, i32, i32, i32, i32, i32, i64, %struct.DataBuffer, i32, i32, i32, i32, i32, i32, %struct.EXTERNAL_REFERENCES, %struct.yv12_buffer_config, ptr, i32, i32, ptr, ptr, %struct.AV1DecRowMTInfo, ptr, i32, i32, i32, i32, [8 x i32], i32, i32, i32, %struct.aom_s_frame_info, [28 x i8] }
%struct.DecoderCodingBlock = type { %struct.macroblockd, i32, [2 x ptr], [3 x ptr], [3 x i16], [3 x ptr], [3 x i16], [29 x i8], [29 x i8] }
%struct.macroblockd = type { i32, i32, i32, i8, [3 x %struct.macroblockd_plane], %struct.TileInfo, ptr, i8, i8, i8, i8, ptr, ptr, ptr, ptr, ptr, i32, i32, i32, i32, i32, [2 x ptr], ptr, [3 x ptr], [3 x [32 x i8]], ptr, [32 x i8], ptr, ptr, [32 x i8], [3 x %struct.WienerInfo], [3 x %struct.SgrprojInfo], i8, i8, [29 x [8 x %struct.candidate_mv]], [29 x [8 x i16]], i8, i8, [8 x i8], ptr, i32, [8 x i32], [8 x i32], i32, i32, ptr, ptr, i8, [4 x i8], [4 x i8], [7 x i8], [32768 x i8], %struct.cfl_ctx, [2 x i16], ptr, [2 x ptr] }
%struct.macroblockd_plane = type { i8, i32, i32, %struct.buf_2d, [2 x %struct.buf_2d], ptr, ptr, [8 x [2 x i16]], ptr, i8, i8, [8 x [19 x ptr]], [8 x [19 x ptr]] }
%struct.buf_2d = type { ptr, ptr, i32, i32, i32 }
%struct.TileInfo = type { i32, i32, i32, i32, i32, i32 }
%struct.WienerInfo = type { [8 x i16], [8 x i16] }
%struct.SgrprojInfo = type { i32, [2 x i32] }
%struct.candidate_mv = type { %union.int_mv, %union.int_mv }
%union.int_mv = type { i32 }
%struct.cfl_ctx = type { [1024 x i16], [1024 x i16], [2 x i32], i32, [2 x [32 x i16]], i32, i32, i32, i32, i32, i32 }
%struct.AV1Common = type { %struct.CurrentFrame, %struct.aom_internal_error_info, i32, i32, i32, i32, i32, i32, i8, i8, [33 x i32], i32, ptr, ptr, [8 x i32], %struct.scale_factors, [8 x %struct.scale_factors], [8 x ptr], i32, i32, i32, %struct.FeatureFlags, %struct.CommonModeInfoParams, %struct.CommonQuantParams, %struct.segmentation, ptr, [8 x i8], %struct.loop_filter_info_n, %struct.loopfilter, [3 x %struct.RestorationInfo], ptr, ptr, %struct.yv12_buffer_config, %struct.CdefInfo, %struct.aom_film_grain_t, %struct.DeltaQInfo, [8 x %struct.WarpedMotionParams], %struct.SequenceHeader, ptr, ptr, %struct.CommonTileParams, ptr, %struct.CommonContexts, i32, [8 x i32], ptr, i32, [8 x i32], [8 x i8], i32, i32, i32, i32 }
%struct.CurrentFrame = type { i8, i8, i32, i32, i32, %struct.SkipModeInfo, i32, i32 }
%struct.SkipModeInfo = type { i32, i32, i32, i32 }
%struct.aom_internal_error_info = type { i32, i32, [200 x i8], i32, [1 x %struct.__jmp_buf_tag] }
%struct.__jmp_buf_tag = type { [8 x i64], i32, %struct.__sigset_t }
%struct.__sigset_t = type { [16 x i64] }
%struct.scale_factors = type { i32, i32, i32, i32, ptr, ptr }
%struct.FeatureFlags = type { i8, i8, i8, i8, i8, i8, i8, i8, i8, i8, i8, i8, i8, i8, i32, i32, i8 }
%struct.CommonModeInfoParams = type { i32, i32, i32, i32, i32, ptr, i32, i32, i8, ptr, i32, i32, ptr, ptr, ptr, ptr }
%struct.CommonQuantParams = type { i32, i32, i32, i32, i32, i32, [8 x [2 x i16]], [8 x [2 x i16]], [8 x [2 x i16]], [16 x [3 x [19 x ptr]]], [16 x [3 x [19 x ptr]]], [8 x [19 x ptr]], [8 x [19 x ptr]], [8 x [19 x ptr]], i8, i32, i32, i32 }
%struct.segmentation = type { i8, i8, i8, i8, [8 x [8 x i16]], [8 x i32], i32, i8 }
%struct.loop_filter_info_n = type { [64 x %struct.loop_filter_thresh], [3 x [8 x [2 x [8 x [2 x i8]]]]] }
%struct.loop_filter_thresh = type { [16 x i8], [16 x i8], [16 x i8] }
%struct.loopfilter = type { [2 x i32], i32, i32, i32, i8, i8, [8 x i8], [2 x i8], i32 }
%struct.RestorationInfo = type { i32, i32, i32, i32, i32, ptr, %struct.RestorationStripeBoundaries, i32 }
%struct.RestorationStripeBoundaries = type { ptr, ptr, i32, i32 }
%struct.CdefInfo = type { i32, i32, [16 x i32], [16 x i32], i32 }
%struct.aom_film_grain_t = type { i32, i32, [14 x [2 x i32]], i32, [10 x [2 x i32]], i32, [10 x [2 x i32]], i32, i32, i32, [24 x i32], [25 x i32], [25 x i32], i32, i32, i32, i32, i32, i32, i32, i32, i32, i32, i32, i32, i16 }
%struct.DeltaQInfo = type { i32, i32, i32, i32, i32 }
%struct.WarpedMotionParams = type { [8 x i32], i16, i16, i16, i16, i8, i8 }
%struct.SequenceHeader = type { i32, i32, i32, i32, i8, i32, i32, i8, i32, i32, %struct.OrderHintInfo, i8, i8, i8, i8, i8, i8, i8, i8, i8, i8, i8, i8, i8, i8, i32, i8, i8, i32, i32, i32, i32, i32, i32, i32, i8, i8, i32, [32 x i32], i32, %struct.aom_timing, i8, %struct.aom_dec_model_info, i8, [32 x i8], [32 x i8], [33 x %struct.aom_dec_model_op_parameters] }
%struct.OrderHintInfo = type { i32, i32, i32, i32 }
%struct.aom_timing = type { i32, i32, i32, i32 }
%struct.aom_dec_model_info = type { i32, i32, i32, i32 }
%struct.aom_dec_model_op_parameters = type { i32, i64, i64, i32, i32, i32, i32, i32 }
%struct.CommonTileParams = type { i32, i32, i32, i32, i32, i32, i32, i32, i32, i32, i32, i32, i32, i32, i32, [65 x i32], [65 x i32], i32, i32 }
%struct.CommonContexts = type { ptr, [3 x ptr], ptr, i32, i32, i32 }
%struct.AV1LfSyncData = type { [3 x ptr], [3 x ptr], [3 x ptr], i32, i32, ptr, i32, ptr, ptr, i32, i32 }
%struct.AV1LrSyncData = type { [3 x ptr], [3 x ptr], [3 x ptr], i32, i32, i32, i32, ptr, ptr, ptr, i32, i32 }
%struct.AV1LrStruct = type { ptr, [3 x %struct.FilterFrameCtxt], ptr, ptr }
%struct.FilterFrameCtxt = type { ptr, i32, i32, i32, i32, i32, ptr, ptr, i32, i32, %struct.AV1PixelRect }
%struct.AV1PixelRect = type { i32, i32, i32, i32 }
%struct.ThreadData = type { %struct.DecoderCodingBlock, %struct.CB_BUFFER, ptr, [2 x ptr], i32, i32, ptr, [2 x ptr], ptr, ptr, ptr, ptr, ptr, ptr, [24 x i8] }
%struct.CB_BUFFER = type { [3 x [16384 x i32]], [3 x [1024 x %struct.eob_info]], [2 x [16384 x i8]] }
%struct.eob_info = type { i16, i16 }
%struct.TileBufferDec = type { ptr, i64 }
%struct.AV1DecTileMTData = type { ptr, ptr, i32, i32, i32, i32 }
%struct.DataBuffer = type { ptr, i64 }
%struct.AV1DecRowMTInfo = type { i32, i32, i32, i32, i32, i32, i32, i32, i32, i32 }
%struct.aom_s_frame_info = type { i32, i32 }
%struct.__va_list_tag = type { i32, i32, ptr, ptr }

; Function Attrs: nounwind uwtable
define internal i32 @ctrl_get_last_ref_updates(ptr noundef %0, ptr noundef %1) #0 {
  %3 = alloca i32, align 4
  %4 = alloca ptr, align 8
  %5 = alloca ptr, align 8
  %6 = alloca ptr, align 8
  %7 = alloca ptr, align 8
  %8 = alloca ptr, align 8
  store ptr %0, ptr %4, align 8
  store ptr %1, ptr %5, align 8
  %9 = load ptr, ptr %5, align 8
  %10 = getelementptr inbounds nuw %struct.__va_list_tag, ptr %9, i32 0, i32 0
  %11 = load i32, ptr %10, align 8
  %12 = icmp ule i32 %11, 40
  br i1 %12, label %13, label %18

13:                                               ; preds = %2
  %14 = getelementptr inbounds nuw %struct.__va_list_tag, ptr %9, i32 0, i32 3
  %15 = load ptr, ptr %14, align 8
  %16 = getelementptr i8, ptr %15, i32 %11
  %17 = add i32 %11, 8
  store i32 %17, ptr %10, align 8
  br label %22

18:                                               ; preds = %2
  %19 = getelementptr inbounds nuw %struct.__va_list_tag, ptr %9, i32 0, i32 2
  %20 = load ptr, ptr %19, align 8
  %21 = getelementptr i8, ptr %20, i32 8
  store ptr %21, ptr %19, align 8
  br label %22

22:                                               ; preds = %18, %13
  %23 = phi ptr [ %16, %13 ], [ %20, %18 ]
  %24 = load ptr, ptr %23, align 8
  store ptr %24, ptr %6, align 8
  %25 = load ptr, ptr %6, align 8
  %26 = icmp ne ptr %25, null
  br i1 %26, label %27, label %48

27:                                               ; preds = %22
  %28 = load ptr, ptr %4, align 8
  %29 = getelementptr inbounds nuw %struct.aom_codec_alg_priv, ptr %28, i32 0, i32 20
  %30 = load ptr, ptr %29, align 8
  %31 = icmp ne ptr %30, null
  br i1 %31, label %32, label %47

32:                                               ; preds = %27
  %33 = load ptr, ptr %4, align 8
  %34 = getelementptr inbounds nuw %struct.aom_codec_alg_priv, ptr %33, i32 0, i32 20
  %35 = load ptr, ptr %34, align 8
  store ptr %35, ptr %7, align 8
  %36 = load ptr, ptr %7, align 8
  %37 = getelementptr inbounds nuw %struct.AVxWorker, ptr %36, i32 0, i32 4
  %38 = load ptr, ptr %37, align 8
  store ptr %38, ptr %8, align 8
  %39 = load ptr, ptr %8, align 8
  %40 = getelementptr inbounds nuw %struct.FrameWorkerData, ptr %39, i32 0, i32 0
  %41 = load ptr, ptr %40, align 8
  %42 = getelementptr inbounds nuw %struct.AV1Decoder, ptr %41, i32 0, i32 1
  %43 = getelementptr inbounds nuw %struct.AV1Common, ptr %42, i32 0, i32 0
  %44 = getelementptr inbounds nuw %struct.CurrentFrame, ptr %43, i32 0, i32 6
  %45 = load i32, ptr %44, align 32
  %46 = load ptr, ptr %6, align 8
  store i32 %45, ptr %46, align 4
  store i32 0, ptr %3, align 4
  br label %49

47:                                               ; preds = %27
  store i32 1, ptr %3, align 4
  br label %49

48:                                               ; preds = %22
  store i32 8, ptr %3, align 4
  br label %49

49:                                               ; preds = %48, %47, %32
  %50 = load i32, ptr %3, align 4
  ret i32 %50
}